target datalayout = "e-m:e-p270:32:32-p271:32:32-p272:64:64-i64:64-i128:128-f80:128-n8:16:32:64-S128"
target triple = "x86_64-pc-linux-gnu"

%"struct.std::_Rb_tree_header" = type { %"struct.std::_Rb_tree_node_base", i64 }
%"struct.std::_Rb_tree_node_base" = type { i32, ptr, ptr, ptr }
%"class.std::vector.5" = type { %"struct.std::_Vector_base.6" }
%"struct.std::_Vector_base.6" = type { %"struct.std::_Vector_base<vcg::Color4<unsigned char>, std::allocator<vcg::Color4<unsigned char>>>::_Vector_impl" }
%"struct.std::_Vector_base<vcg::Color4<unsigned char>, std::allocator<vcg::Color4<unsigned char>>>::_Vector_impl" = type { %"struct.std::_Vector_base<vcg::Color4<unsigned char>, std::allocator<vcg::Color4<unsigned char>>>::_Vector_impl_data" }
%"struct.std::_Vector_base<vcg::Color4<unsigned char>, std::allocator<vcg::Color4<unsigned char>>>::_Vector_impl_data" = type { ptr, ptr, ptr }
%"class.vcg::Color4" = type { %"class.vcg::Point4" }
%"class.vcg::Point4" = type { [4 x i8] }
%class.QString = type { ptr }
%class.MeshModel = type { %class.CMeshO, i32, i8, %class.QString, %class.QString, i32, i8, i32, %"class.std::map.128" }
%class.CMeshO = type { %"class.vcg::tri::TriMesh.base", i32, i32, i32, i32, %"class.vcg::Matrix44", [4 x i8] }
%"class.vcg::tri::TriMesh.base" = type <{ ptr, %"class.vcg::vertex::vector_ocf", i32, [4 x i8], %"class.std::vector.69", i32, [4 x i8], %"class.vcg::face::vector_ocf", i32, [4 x i8], %"class.std::vector.104", i32, [4 x i8], %"class.std::vector.109", i32, %"class.vcg::Box3", [4 x i8], %"class.std::vector.114", %"class.std::vector.114", i32, [4 x i8], %"class.std::set", %"class.std::set", %"class.std::set", %"class.std::set", %"class.std::set", %"class.vcg::Shot", %"class.vcg::Color4", i32 }>
%"class.vcg::vertex::vector_ocf" = type <{ %"class.std::vector.29", %"class.std::vector.5", %"class.std::vector.34", %"class.std::vector.39", %"class.std::vector.44", %"class.std::vector.49", %"class.std::vector.54", %"class.std::vector.54", %"class.std::vector.59", %"class.std::vector.64", i8, i8, i8, i8, i8, i8, i8, i8, i8, [7 x i8] }>
%"class.std::vector.29" = type { %"struct.std::_Vector_base.30" }
%"struct.std::_Vector_base.30" = type { %"struct.std::_Vector_base<CVertexO, std::allocator<CVertexO>>::_Vector_impl" }
%"struct.std::_Vector_base<CVertexO, std::allocator<CVertexO>>::_Vector_impl" = type { %"struct.std::_Vector_base<CVertexO, std::allocator<CVertexO>>::_Vector_impl_data" }
%"struct.std::_Vector_base<CVertexO, std::allocator<CVertexO>>::_Vector_impl_data" = type { ptr, ptr, ptr }
%"class.std::vector.34" = type { %"struct.std::_Vector_base.35" }
%"struct.std::_Vector_base.35" = type { %"struct.std::_Vector_base<vcg::Point2<float>, std::allocator<vcg::Point2<float>>>::_Vector_impl" }
%"struct.std::_Vector_base<vcg::Point2<float>, std::allocator<vcg::Point2<float>>>::_Vector_impl" = type { %"struct.std::_Vector_base<vcg::Point2<float>, std::allocator<vcg::Point2<float>>>::_Vector_impl_data" }
%"struct.std::_Vector_base<vcg::Point2<float>, std::allocator<vcg::Point2<float>>>::_Vector_impl_data" = type { ptr, ptr, ptr }
%"class.std::vector.39" = type { %"struct.std::_Vector_base.40" }
%"struct.std::_Vector_base.40" = type { %"struct.std::_Vector_base<vcg::vertex::CurvatureDirTypeOcf<float>, std::allocator<vcg::vertex::CurvatureDirTypeOcf<float>>>::_Vector_impl" }
%"struct.std::_Vector_base<vcg::vertex::CurvatureDirTypeOcf<float>, std::allocator<vcg::vertex::CurvatureDirTypeOcf<float>>>::_Vector_impl" = type { %"struct.std::_Vector_base<vcg::vertex::CurvatureDirTypeOcf<float>, std::allocator<vcg::vertex::CurvatureDirTypeOcf<float>>>::_Vector_impl_data" }
%"struct.std::_Vector_base<vcg::vertex::CurvatureDirTypeOcf<float>, std::allocator<vcg::vertex::CurvatureDirTypeOcf<float>>>::_Vector_impl_data" = type { ptr, ptr, ptr }
%"class.std::vector.44" = type { %"struct.std::_Vector_base.45" }
%"struct.std::_Vector_base.45" = type { %"struct.std::_Vector_base<int, std::allocator<int>>::_Vector_impl" }
%"struct.std::_Vector_base<int, std::allocator<int>>::_Vector_impl" = type { %"struct.std::_Vector_base<int, std::allocator<int>>::_Vector_impl_data" }
%"struct.std::_Vector_base<int, std::allocator<int>>::_Vector_impl_data" = type { ptr, ptr, ptr }
%"class.std::vector.49" = type { %"struct.std::_Vector_base.50" }
%"struct.std::_Vector_base.50" = type { %"struct.std::_Vector_base<vcg::Point3<float>, std::allocator<vcg::Point3<float>>>::_Vector_impl" }
%"struct.std::_Vector_base<vcg::Point3<float>, std::allocator<vcg::Point3<float>>>::_Vector_impl" = type { %"struct.std::_Vector_base<vcg::Point3<float>, std::allocator<vcg::Point3<float>>>::_Vector_impl_data" }
%"struct.std::_Vector_base<vcg::Point3<float>, std::allocator<vcg::Point3<float>>>::_Vector_impl_data" = type { ptr, ptr, ptr }
%"class.std::vector.54" = type { %"struct.std::_Vector_base.55" }
%"struct.std::_Vector_base.55" = type { %"struct.std::_Vector_base<float, std::allocator<float>>::_Vector_impl" }
%"struct.std::_Vector_base<float, std::allocator<float>>::_Vector_impl" = type { %"struct.std::_Vector_base<float, std::allocator<float>>::_Vector_impl_data" }
%"struct.std::_Vector_base<float, std::allocator<float>>::_Vector_impl_data" = type { ptr, ptr, ptr }
%"class.std::vector.59" = type { %"struct.std::_Vector_base.60" }
%"struct.std::_Vector_base.60" = type { %"struct.std::_Vector_base<vcg::TexCoord2<>, std::allocator<vcg::TexCoord2<>>>::_Vector_impl" }
%"struct.std::_Vector_base<vcg::TexCoord2<>, std::allocator<vcg::TexCoord2<>>>::_Vector_impl" = type { %"struct.std::_Vector_base<vcg::TexCoord2<>, std::allocator<vcg::TexCoord2<>>>::_Vector_impl_data" }
%"struct.std::_Vector_base<vcg::TexCoord2<>, std::allocator<vcg::TexCoord2<>>>::_Vector_impl_data" = type { ptr, ptr, ptr }
%"class.std::vector.64" = type { %"struct.std::_Vector_base.65" }
%"struct.std::_Vector_base.65" = type { %"struct.std::_Vector_base<vcg::vertex::vector_ocf<CVertexO>::VFAdjType, std::allocator<vcg::vertex::vector_ocf<CVertexO>::VFAdjType>>::_Vector_impl" }
%"struct.std::_Vector_base<vcg::vertex::vector_ocf<CVertexO>::VFAdjType, std::allocator<vcg::vertex::vector_ocf<CVertexO>::VFAdjType>>::_Vector_impl" = type { %"struct.std::_Vector_base<vcg::vertex::vector_ocf<CVertexO>::VFAdjType, std::allocator<vcg::vertex::vector_ocf<CVertexO>::VFAdjType>>::_Vector_impl_data" }
%"struct.std::_Vector_base<vcg::vertex::vector_ocf<CVertexO>::VFAdjType, std::allocator<vcg::vertex::vector_ocf<CVertexO>::VFAdjType>>::_Vector_impl_data" = type { ptr, ptr, ptr }
%"class.std::vector.69" = type { %"struct.std::_Vector_base.70" }
%"struct.std::_Vector_base.70" = type { %"struct.std::_Vector_base<CEdgeO, std::allocator<CEdgeO>>::_Vector_impl" }
%"struct.std::_Vector_base<CEdgeO, std::allocator<CEdgeO>>::_Vector_impl" = type { %"struct.std::_Vector_base<CEdgeO, std::allocator<CEdgeO>>::_Vector_impl_data" }
%"struct.std::_Vector_base<CEdgeO, std::allocator<CEdgeO>>::_Vector_impl_data" = type { ptr, ptr, ptr }
%"class.vcg::face::vector_ocf" = type <{ %"class.std::vector.74", %"class.std::vector.5", %"class.std::vector.79", %"class.std::vector.44", %"class.std::vector.49", %"class.std::vector.54", %"class.std::vector.84", %"class.std::vector.89", %"class.std::vector.94", %"class.std::vector.99", %"class.std::vector.99", i8, i8, i8, i8, i8, i8, i8, i8, i8, i8, [6 x i8] }>
%"class.std::vector.74" = type { %"struct.std::_Vector_base.75" }
%"struct.std::_Vector_base.75" = type { %"struct.std::_Vector_base<CFaceO, std::allocator<CFaceO>>::_Vector_impl" }
%"struct.std::_Vector_base<CFaceO, std::allocator<CFaceO>>::_Vector_impl" = type { %"struct.std::_Vector_base<CFaceO, std::allocator<CFaceO>>::_Vector_impl_data" }
%"struct.std::_Vector_base<CFaceO, std::allocator<CFaceO>>::_Vector_impl_data" = type { ptr, ptr, ptr }
%"class.std::vector.79" = type { %"struct.std::_Vector_base.80" }
%"struct.std::_Vector_base.80" = type { %"struct.std::_Vector_base<vcg::face::CurvatureDirOcfBaseType<float>, std::allocator<vcg::face::CurvatureDirOcfBaseType<float>>>::_Vector_impl" }
%"struct.std::_Vector_base<vcg::face::CurvatureDirOcfBaseType<float>, std::allocator<vcg::face::CurvatureDirOcfBaseType<float>>>::_Vector_impl" = type { %"struct.std::_Vector_base<vcg::face::CurvatureDirOcfBaseType<float>, std::allocator<vcg::face::CurvatureDirOcfBaseType<float>>>::_Vector_impl_data" }
%"struct.std::_Vector_base<vcg::face::CurvatureDirOcfBaseType<float>, std::allocator<vcg::face::CurvatureDirOcfBaseType<float>>>::_Vector_impl_data" = type { ptr, ptr, ptr }
%"class.std::vector.84" = type { %"struct.std::_Vector_base.85" }
%"struct.std::_Vector_base.85" = type { %"struct.std::_Vector_base<vcg::face::vector_ocf<CFaceO>::WedgeColorTypePack, std::allocator<vcg::face::vector_ocf<CFaceO>::WedgeColorTypePack>>::_Vector_impl" }
%"struct.std::_Vector_base<vcg::face::vector_ocf<CFaceO>::WedgeColorTypePack, std::allocator<vcg::face::vector_ocf<CFaceO>::WedgeColorTypePack>>::_Vector_impl" = type { %"struct.std::_Vector_base<vcg::face::vector_ocf<CFaceO>::WedgeColorTypePack, std::allocator<vcg::face::vector_ocf<CFaceO>::WedgeColorTypePack>>::_Vector_impl_data" }
%"struct.std::_Vector_base<vcg::face::vector_ocf<CFaceO>::WedgeColorTypePack, std::allocator<vcg::face::vector_ocf<CFaceO>::WedgeColorTypePack>>::_Vector_impl_data" = type { ptr, ptr, ptr }
%"class.std::vector.89" = type { %"struct.std::_Vector_base.90" }
%"struct.std::_Vector_base.90" = type { %"struct.std::_Vector_base<vcg::face::vector_ocf<CFaceO>::WedgeNormalTypePack, std::allocator<vcg::face::vector_ocf<CFaceO>::WedgeNormalTypePack>>::_Vector_impl" }
%"struct.std::_Vector_base<vcg::face::vector_ocf<CFaceO>::WedgeNormalTypePack, std::allocator<vcg::face::vector_ocf<CFaceO>::WedgeNormalTypePack>>::_Vector_impl" = type { %"struct.std::_Vector_base<vcg::face::vector_ocf<CFaceO>::WedgeNormalTypePack, std::allocator<vcg::face::vector_ocf<CFaceO>::WedgeNormalTypePack>>::_Vector_impl_data" }
%"struct.std::_Vector_base<vcg::face::vector_ocf<CFaceO>::WedgeNormalTypePack, std::allocator<vcg::face::vector_ocf<CFaceO>::WedgeNormalTypePack>>::_Vector_impl_data" = type { ptr, ptr, ptr }
%"class.std::vector.94" = type { %"struct.std::_Vector_base.95" }
%"struct.std::_Vector_base.95" = type { %"struct.std::_Vector_base<vcg::face::vector_ocf<CFaceO>::WedgeTexTypePack, std::allocator<vcg::face::vector_ocf<CFaceO>::WedgeTexTypePack>>::_Vector_impl" }
%"struct.std::_Vector_base<vcg::face::vector_ocf<CFaceO>::WedgeTexTypePack, std::allocator<vcg::face::vector_ocf<CFaceO>::WedgeTexTypePack>>::_Vector_impl" = type { %"struct.std::_Vector_base<vcg::face::vector_ocf<CFaceO>::WedgeTexTypePack, std::allocator<vcg::face::vector_ocf<CFaceO>::WedgeTexTypePack>>::_Vector_impl_data" }
%"struct.std::_Vector_base<vcg::face::vector_ocf<CFaceO>::WedgeTexTypePack, std::allocator<vcg::face::vector_ocf<CFaceO>::WedgeTexTypePack>>::_Vector_impl_data" = type { ptr, ptr, ptr }
%"class.std::vector.99" = type { %"struct.std::_Vector_base.100" }
%"struct.std::_Vector_base.100" = type { %"struct.std::_Vector_base<vcg::face::vector_ocf<CFaceO>::AdjTypePack, std::allocator<vcg::face::vector_ocf<CFaceO>::AdjTypePack>>::_Vector_impl" }
%"struct.std::_Vector_base<vcg::face::vector_ocf<CFaceO>::AdjTypePack, std::allocator<vcg::face::vector_ocf<CFaceO>::AdjTypePack>>::_Vector_impl" = type { %"struct.std::_Vector_base<vcg::face::vector_ocf<CFaceO>::AdjTypePack, std::allocator<vcg::face::vector_ocf<CFaceO>::AdjTypePack>>::_Vector_impl_data" }
%"struct.std::_Vector_base<vcg::face::vector_ocf<CFaceO>::AdjTypePack, std::allocator<vcg::face::vector_ocf<CFaceO>::AdjTypePack>>::_Vector_impl_data" = type { ptr, ptr, ptr }
%"class.std::vector.104" = type { %"struct.std::_Vector_base.105" }
%"struct.std::_Vector_base.105" = type { %"struct.std::_Vector_base<vcg::HEdge<vcg::UsedTypes<vcg::Use<CVertexO>::AsVertexType, vcg::Use<CEdgeO>::AsEdgeType, vcg::Use<CFaceO>::AsFaceType>>, std::allocator<vcg::HEdge<vcg::UsedTypes<vcg::Use<CVertexO>::AsVertexType, vcg::Use<CEdgeO>::AsEdgeType, vcg::Use<CFaceO>::AsFaceType>>>>::_Vector_impl" }
%"struct.std::_Vector_base<vcg::HEdge<vcg::UsedTypes<vcg::Use<CVertexO>::AsVertexType, vcg::Use<CEdgeO>::AsEdgeType, vcg::Use<CFaceO>::AsFaceType>>, std::allocator<vcg::HEdge<vcg::UsedTypes<vcg::Use<CVertexO>::AsVertexType, vcg::Use<CEdgeO>::AsEdgeType, vcg::Use<CFaceO>::AsFaceType>>>>::_Vector_impl" = type { %"struct.std::_Vector_base<vcg::HEdge<vcg::UsedTypes<vcg::Use<CVertexO>::AsVertexType, vcg::Use<CEdgeO>::AsEdgeType, vcg::Use<CFaceO>::AsFaceType>>, std::allocator<vcg::HEdge<vcg::UsedTypes<vcg::Use<CVertexO>::AsVertexType, vcg::Use<CEdgeO>::AsEdgeType, vcg::Use<CFaceO>::AsFaceType>>>>::_Vector_impl_data" }
%"struct.std::_Vector_base<vcg::HEdge<vcg::UsedTypes<vcg::Use<CVertexO>::AsVertexType, vcg::Use<CEdgeO>::AsEdgeType, vcg::Use<CFaceO>::AsFaceType>>, std::allocator<vcg::HEdge<vcg::UsedTypes<vcg::Use<CVertexO>::AsVertexType, vcg::Use<CEdgeO>::AsEdgeType, vcg::Use<CFaceO>::AsFaceType>>>>::_Vector_impl_data" = type { ptr, ptr, ptr }
%"class.std::vector.109" = type { %"struct.std::_Vector_base.110" }
%"struct.std::_Vector_base.110" = type { %"struct.std::_Vector_base<vcg::TetraSimp<vcg::UsedTypes<vcg::Use<CVertexO>::AsVertexType, vcg::Use<CEdgeO>::AsEdgeType, vcg::Use<CFaceO>::AsFaceType>>, std::allocator<vcg::TetraSimp<vcg::UsedTypes<vcg::Use<CVertexO>::AsVertexType, vcg::Use<CEdgeO>::AsEdgeType, vcg::Use<CFaceO>::AsFaceType>>>>::_Vector_impl" }
%"struct.std::_Vector_base<vcg::TetraSimp<vcg::UsedTypes<vcg::Use<CVertexO>::AsVertexType, vcg::Use<CEdgeO>::AsEdgeType, vcg::Use<CFaceO>::AsFaceType>>, std::allocator<vcg::TetraSimp<vcg::UsedTypes<vcg::Use<CVertexO>::AsVertexType, vcg::Use<CEdgeO>::AsEdgeType, vcg::Use<CFaceO>::AsFaceType>>>>::_Vector_impl" = type { %"struct.std::_Vector_base<vcg::TetraSimp<vcg::UsedTypes<vcg::Use<CVertexO>::AsVertexType, vcg::Use<CEdgeO>::AsEdgeType, vcg::Use<CFaceO>::AsFaceType>>, std::allocator<vcg::TetraSimp<vcg::UsedTypes<vcg::Use<CVertexO>::AsVertexType, vcg::Use<CEdgeO>::AsEdgeType, vcg::Use<CFaceO>::AsFaceType>>>>::_Vector_impl_data" }
%"struct.std::_Vector_base<vcg::TetraSimp<vcg::UsedTypes<vcg::Use<CVertexO>::AsVertexType, vcg::Use<CEdgeO>::AsEdgeType, vcg::Use<CFaceO>::AsFaceType>>, std::allocator<vcg::TetraSimp<vcg::UsedTypes<vcg::Use<CVertexO>::AsVertexType, vcg::Use<CEdgeO>::AsEdgeType, vcg::Use<CFaceO>::AsFaceType>>>>::_Vector_impl_data" = type { ptr, ptr, ptr }
%"class.vcg::Box3" = type { %"class.vcg::Point3", %"class.vcg::Point3" }
%"class.vcg::Point3" = type { [3 x float] }
%"class.std::vector.114" = type { %"struct.std::_Vector_base.115" }
%"struct.std::_Vector_base.115" = type { %"struct.std::_Vector_base<std::__cxx11::basic_string<char>, std::allocator<std::__cxx11::basic_string<char>>>::_Vector_impl" }
%"struct.std::_Vector_base<std::__cxx11::basic_string<char>, std::allocator<std::__cxx11::basic_string<char>>>::_Vector_impl" = type { %"struct.std::_Vector_base<std::__cxx11::basic_string<char>, std::allocator<std::__cxx11::basic_string<char>>>::_Vector_impl_data" }
%"struct.std::_Vector_base<std::__cxx11::basic_string<char>, std::allocator<std::__cxx11::basic_string<char>>>::_Vector_impl_data" = type { ptr, ptr, ptr }
%"class.std::set" = type { %"class.std::_Rb_tree.119" }
%"class.std::_Rb_tree.119" = type { %"struct.std::_Rb_tree<vcg::PointerToAttribute, vcg::PointerToAttribute, std::_Identity<vcg::PointerToAttribute>, std::less<vcg::PointerToAttribute>>::_Rb_tree_impl" }
%"struct.std::_Rb_tree<vcg::PointerToAttribute, vcg::PointerToAttribute, std::_Identity<vcg::PointerToAttribute>, std::less<vcg::PointerToAttribute>>::_Rb_tree_impl" = type { %"struct.std::_Rb_tree_key_compare.123", %"struct.std::_Rb_tree_header" }
%"struct.std::_Rb_tree_key_compare.123" = type { %"struct.std::less.124" }
%"struct.std::less.124" = type { i8 }
%"class.vcg::Shot" = type { %"class.vcg::Camera", %"class.vcg::Shot<float>::ReferenceFrame" }
%"class.vcg::Camera" = type { float, %"class.vcg::Point2", %"class.vcg::Point2.126", %"class.vcg::Point2.126", %"class.vcg::Point2.126", %"struct.std::array", i32 }
%"class.vcg::Point2" = type { [2 x i32] }
%"class.vcg::Point2.126" = type { [2 x float] }
%"struct.std::array" = type { [4 x float] }
%"class.vcg::Shot<float>::ReferenceFrame" = type { %"class.vcg::Matrix44", %"class.vcg::Point3" }
%"class.vcg::Matrix44" = type { %"struct.std::array.127" }
%"struct.std::array.127" = type { [16 x float] }
%"class.std::map.128" = type { %"class.std::_Rb_tree.129" }
%"class.std::_Rb_tree.129" = type { %"struct.std::_Rb_tree<std::__cxx11::basic_string<char>, std::pair<const std::__cxx11::basic_string<char>, QImage>, std::_Select1st<std::pair<const std::__cxx11::basic_string<char>, QImage>>, std::less<std::__cxx11::basic_string<char>>>::_Rb_tree_impl" }
%"struct.std::_Rb_tree<std::__cxx11::basic_string<char>, std::pair<const std::__cxx11::basic_string<char>, QImage>, std::_Select1st<std::pair<const std::__cxx11::basic_string<char>, QImage>>, std::less<std::__cxx11::basic_string<char>>>::_Rb_tree_impl" = type { %"struct.std::_Rb_tree_key_compare.133", %"struct.std::_Rb_tree_header" }
%"struct.std::_Rb_tree_key_compare.133" = type { %"struct.std::less.134" }
%"struct.std::less.134" = type { i8 }
%"class.vcg::tri::TriMesh" = type <{ ptr, %"class.vcg::vertex::vector_ocf", i32, [4 x i8], %"class.std::vector.69", i32, [4 x i8], %"class.vcg::face::vector_ocf", i32, [4 x i8], %"class.std::vector.104", i32, [4 x i8], %"class.std::vector.109", i32, %"class.vcg::Box3", [4 x i8], %"class.std::vector.114", %"class.std::vector.114", i32, [4 x i8], %"class.std::set", %"class.std::set", %"class.std::set", %"class.std::set", %"class.std::set", %"class.vcg::Shot", %"class.vcg::Color4", i32, [4 x i8] }>

; Function Attrs: mustprogress nounwind uwtable
define linkonce_odr noundef i32 @_ZNK3vcg3tri7TriMeshINS_6vertex10vector_ocfI8CVertexOEENS_4face10vector_ocfI6CFaceOEENS0_14DummyContainerESA_SA_E2ENEv(ptr noundef nonnull align 8 dereferenceable(1116) %0) #4 comdat align 2 {
  %2 = alloca ptr, align 8
  store ptr %0, ptr %2, align 8
  %3 = load ptr, ptr %2, align 8
  %4 = getelementptr inbounds %"class.vcg::tri::TriMesh", ptr %3, i32 0, i32 5
  %5 = load i32, ptr %4, align 8
  ret i32 %5
}

; Function Attrs: mustprogress nounwind uwtable
define linkonce_odr noundef i32 @_ZNK3vcg3tri7TriMeshINS_6vertex10vector_ocfI8CVertexOEENS_4face10vector_ocfI6CFaceOEENS0_14DummyContainerESA_SA_E2VNEv(ptr noundef nonnull align 8 dereferenceable(1116) %0) #4 comdat align 2 {
  %2 = alloca ptr, align 8
  store ptr %0, ptr %2, align 8
  %3 = load ptr, ptr %2, align 8
  %4 = getelementptr inbounds %"class.vcg::tri::TriMesh", ptr %3, i32 0, i32 2
  %5 = load i32, ptr %4, align 8
  ret i32 %5
}

; Function Attrs: mustprogress nounwind uwtable
define linkonce_odr noundef i32 @_ZNK3vcg3tri7TriMeshINS_6vertex10vector_ocfI8CVertexOEENS_4face10vector_ocfI6CFaceOEENS0_14DummyContainerESA_SA_E2FNEv(ptr noundef nonnull align 8 dereferenceable(1116) %0) #4 comdat align 2 {
  %2 = alloca ptr, align 8
  store ptr %0, ptr %2, align 8
  %3 = load ptr, ptr %2, align 8
  %4 = getelementptr inbounds %"class.vcg::tri::TriMesh", ptr %3, i32 0, i32 8
  %5 = load i32, ptr %4, align 8
  ret i32 %5
}

; Function Attrs: mustprogress nounwind uwtable
define noundef i32 @_ZN29MLPoliciesStandAloneFunctions36bestPrimitiveModalityAccordingToMeshEPK9MeshModel(ptr noundef %0) #4 align 2 {
  %2 = alloca i32, align 4
  %3 = alloca ptr, align 8
  store ptr %0, ptr %3, align 8
  %4 = load ptr, ptr %3, align 8
  %5 = icmp ne ptr %4, null
  br i1 %5, label %6, label %32

6:                                                ; preds = %1
  %7 = load ptr, ptr %3, align 8
  %8 = getelementptr inbounds %class.MeshModel, ptr %7, i32 0, i32 0
  %9 = call noundef i32 @_ZNK3vcg3tri7TriMeshINS_6vertex10vector_ocfI8CVertexOEENS_4face10vector_ocfI6CFaceOEENS0_14DummyContainerESA_SA_E2FNEv(ptr noundef nonnull align 8 dereferenceable(1116) %8)
  %10 = icmp sgt i32 %9, 0
  br i1 %10, label %11, label %12

11:                                               ; preds = %6
  store i32 3, ptr %2, align 4
  br label %33

12:                                               ; preds = %6
  %13 = load ptr, ptr %3, align 8
  %14 = getelementptr inbounds %class.MeshModel, ptr %13, i32 0, i32 0
  %15 = call noundef i32 @_ZNK3vcg3tri7TriMeshINS_6vertex10vector_ocfI8CVertexOEENS_4face10vector_ocfI6CFaceOEENS0_14DummyContainerESA_SA_E2VNEv(ptr noundef nonnull align 8 dereferenceable(1116) %14)
  %16 = icmp sgt i32 %15, 0
  br i1 %16, label %17, label %23

17:                                               ; preds = %12
  %18 = load ptr, ptr %3, align 8
  %19 = getelementptr inbounds %class.MeshModel, ptr %18, i32 0, i32 0
  %20 = call noundef i32 @_ZNK3vcg3tri7TriMeshINS_6vertex10vector_ocfI8CVertexOEENS_4face10vector_ocfI6CFaceOEENS0_14DummyContainerESA_SA_E2ENEv(ptr noundef nonnull align 8 dereferenceable(1116) %19)
  %21 = icmp sgt i32 %20, 0
  br i1 %21, label %22, label %23

22:                                               ; preds = %17
  store i32 1, ptr %2, align 4
  br label %33

23:                                               ; preds = %17, %12
  %24 = load ptr, ptr %3, align 8
  %25 = getelementptr inbounds %class.MeshModel, ptr %24, i32 0, i32 0
  %26 = call noundef i32 @_ZNK3vcg3tri7TriMeshINS_6vertex10vector_ocfI8CVertexOEENS_4face10vector_ocfI6CFaceOEENS0_14DummyContainerESA_SA_E2VNEv(ptr noundef nonnull align 8 dereferenceable(1116) %25)
  %27 = icmp sgt i32 %26, 0
  br i1 %27, label %28, label %29

28:                                               ; preds = %23
  store i32 0, ptr %2, align 4
  br label %33

29:                                               ; preds = %23
  br label %30

30:                                               ; preds = %29
  br label %31

31:                                               ; preds = %30
  br label %32

32:                                               ; preds = %31, %1
  store i32 4, ptr %2, align 4
  br label %33

33:                                               ; preds = %32, %28, %22, %11
  %34 = load i32, ptr %2, align 4
  ret i32 %34
}