; Function Attrs: mustprogress nofree norecurse nosync nounwind willreturn memory(argmem: read) uwtable
define noundef i32 @_ZN29MLPoliciesStandAloneFunctions36bestPrimitiveModalityAccordingToMeshEPK9MeshModel(ptr noundef readonly %0) local_unnamed_addr #16 align 2 {
  %.not = icmp eq ptr %0, null
  br i1 %.not, label %.thread, label %2

2:                                                ; preds = %1
  %3 = getelementptr inbounds i8, ptr %0, i64 584
  %4 = load i32, ptr %3, align 8
  %5 = icmp sgt i32 %4, 0
  br i1 %5, label %.thread, label %6

6:                                                ; preds = %2
  %7 = getelementptr inbounds i8, ptr %0, i64 264
  %8 = load i32, ptr %7, align 8
  %9 = icmp sgt i32 %8, 0
  br i1 %9, label %10, label %.thread

10:                                               ; preds = %6
  %11 = getelementptr inbounds i8, ptr %0, i64 296
  %12 = load i32, ptr %11, align 8
  %13 = icmp sgt i32 %12, 0
  %spec.select = zext i1 %13 to i32
  br label %.thread

.thread:                                          ; preds = %10, %1, %6, %2
  %.0 = phi i32 [ 3, %2 ], [ 4, %6 ], [ 4, %1 ], [ %spec.select, %10 ]
  ret i32 %.0
}